target datalayout = "e-m:e-p270:32:32-p271:32:32-p272:64:64-i64:64-i128:128-f80:128-n8:16:32:64-S128"
target triple = "x86_64-pc-linux-gnu"

; Function Attrs: nounwind uwtable
define dso_local void @add_display_treestore_line_with_font(i32 noundef %0, ptr noundef %1, ptr noundef %2, ptr noundef %3, ptr noundef %4, ptr noundef %5) #0 {
  %7 = alloca i32, align 4
  %8 = alloca ptr, align 8
  %9 = alloca ptr, align 8
  %10 = alloca ptr, align 8
  %11 = alloca ptr, align 8
  %12 = alloca ptr, align 8
  %13 = alloca ptr, align 8
  %14 = alloca ptr, align 8
  %15 = alloca i32, align 4
  store i32 %0, ptr %7, align 4
  store ptr %1, ptr %8, align 8
  store ptr %2, ptr %9, align 8
  store ptr %3, ptr %10, align 8
  store ptr %4, ptr %11, align 8
  store ptr %5, ptr %12, align 8
  %16 = load ptr, ptr %10, align 8
  %17 = icmp ne ptr %16, null
  br i1 %17, label %19, label %18

18:                                               ; preds = %6
  br label %64

19:                                               ; preds = %6
  %20 = load i32, ptr %7, align 4
  %21 = icmp ne i32 %20, 0
  br i1 %21, label %22, label %54

22:                                               ; preds = %19
  call void @llvm.lifetime.start.p0(i64 8, ptr %13) #11
  store ptr null, ptr %13, align 8
  call void @llvm.lifetime.start.p0(i64 8, ptr %14) #11
  %23 = call ptr @gtk_tree_path_new_first()
  store ptr %23, ptr %14, align 8
  %24 = load ptr, ptr %8, align 8
  %25 = call i64 @gtk_tree_model_get_type() #12
  %26 = call ptr @g_type_check_instance_cast(ptr noundef %24, i64 noundef %25)
  %27 = load ptr, ptr %9, align 8
  %28 = load ptr, ptr %14, align 8
  %29 = call i32 @gtk_tree_model_get_iter(ptr noundef %26, ptr noundef %27, ptr noundef %28)
  br label %30

30:                                               ; preds = %51, %22
  br label %31

31:                                               ; preds = %30
  %32 = load ptr, ptr %8, align 8
  %33 = call i64 @gtk_tree_model_get_type() #12
  %34 = call ptr @g_type_check_instance_cast(ptr noundef %32, i64 noundef %33)
  %35 = load ptr, ptr %9, align 8
  call void (ptr, ptr, ...) @gtk_tree_model_get(ptr noundef %34, ptr noundef %35, i32 noundef 0, ptr noundef %13, i32 noundef -1)
  %36 = load ptr, ptr %13, align 8
  %37 = load ptr, ptr %10, align 8
  %38 = call i32 @xstrcmp(ptr noundef %36, ptr noundef %37)
  %39 = icmp ne i32 %38, 0
  br i1 %39, label %42, label %40

40:                                               ; preds = %31
  %41 = load ptr, ptr %13, align 8
  call void @g_free(ptr noundef %41)
  store i32 4, ptr %15, align 4
  br label %52

42:                                               ; preds = %31
  %43 = load ptr, ptr %13, align 8
  call void @g_free(ptr noundef %43)
  %44 = load ptr, ptr %8, align 8
  %45 = call i64 @gtk_tree_model_get_type() #12
  %46 = call ptr @g_type_check_instance_cast(ptr noundef %44, i64 noundef %45)
  %47 = load ptr, ptr %9, align 8
  %48 = call i32 @gtk_tree_model_iter_next(ptr noundef %46, ptr noundef %47)
  %49 = icmp ne i32 %48, 0
  br i1 %49, label %51, label %50

50:                                               ; preds = %42
  store i32 1, ptr %15, align 4
  br label %52

51:                                               ; preds = %42
  br label %30, !llvm.loop !51

52:                                               ; preds = %40, %50
  call void @llvm.lifetime.end.p0(i64 8, ptr %14) #11
  call void @llvm.lifetime.end.p0(i64 8, ptr %13) #11
  %53 = load i32, ptr %15, align 4
  switch i32 %53, label %65 [
    i32 1, label %64
    i32 4, label %58
  ]

54:                                               ; preds = %19
  %55 = load ptr, ptr %8, align 8
  %56 = load ptr, ptr %9, align 8
  call void @gtk_tree_store_append(ptr noundef %55, ptr noundef %56, ptr noundef null)
  br label %57

57:                                               ; preds = %54
  br label %58

58:                                               ; preds = %57, %52
  %59 = load ptr, ptr %8, align 8
  %60 = load ptr, ptr %9, align 8
  %61 = load ptr, ptr %10, align 8
  %62 = load ptr, ptr %11, align 8
  %63 = load ptr, ptr %12, align 8
  call void (ptr, ptr, ...) @gtk_tree_store_set(ptr noundef %59, ptr noundef %60, i32 noundef 0, ptr noundef %61, i32 noundef 1, ptr noundef %62, i32 noundef 2, ptr noundef %63, i32 noundef -1)
  br label %64

64:                                               ; preds = %58, %52, %18
  ret void

65:                                               ; preds = %52
  unreachable
}