; Function Attrs: nounwind uwtable
define dso_local void @add_display_treestore_line_with_font(i32 noundef %0, ptr noundef %1, ptr noundef %2, ptr noundef %3, ptr noundef %4, ptr noundef %5) local_unnamed_addr #2 {
  %7 = alloca ptr, align 8
  %.not = icmp eq ptr %3, null
  br i1 %.not, label %25, label %8

8:                                                ; preds = %6
  %.not18 = icmp eq i32 %0, 0
  br i1 %.not18, label %23, label %9

9:                                                ; preds = %8
  call void @llvm.lifetime.start.p0(i64 8, ptr nonnull %7) #16
  store ptr null, ptr %7, align 8
  %10 = tail call ptr @gtk_tree_path_new_first() #16
  %11 = tail call i64 @gtk_tree_model_get_type() #17
  %12 = tail call ptr @g_type_check_instance_cast(ptr noundef %1, i64 noundef %11) #16
  %13 = tail call i32 @gtk_tree_model_get_iter(ptr noundef %12, ptr noundef %2, ptr noundef %10) #16
  br label %14

14:                                               ; preds = %19, %9
  %15 = call ptr @g_type_check_instance_cast(ptr noundef %1, i64 noundef %11) #16
  call void (ptr, ptr, ...) @gtk_tree_model_get(ptr noundef %15, ptr noundef %2, i32 noundef 0, ptr noundef nonnull %7, i32 noundef -1) #16
  %16 = load ptr, ptr %7, align 8
  %17 = call i32 @xstrcmp(ptr noundef %16, ptr noundef nonnull %3) #16
  %.not19 = icmp eq i32 %17, 0
  %18 = load ptr, ptr %7, align 8
  call void @g_free(ptr noundef %18) #16
  br i1 %.not19, label %22, label %19

19:                                               ; preds = %14
  %20 = call ptr @g_type_check_instance_cast(ptr noundef %1, i64 noundef %11) #16
  %21 = call i32 @gtk_tree_model_iter_next(ptr noundef %20, ptr noundef %2) #16
  %.not20 = icmp eq i32 %21, 0
  br i1 %.not20, label %.thread, label %14, !llvm.loop !49

.thread:                                          ; preds = %19
  call void @llvm.lifetime.end.p0(i64 8, ptr nonnull %7) #16
  br label %25

22:                                               ; preds = %14
  call void @llvm.lifetime.end.p0(i64 8, ptr nonnull %7) #16
  br label %24

23:                                               ; preds = %8
  tail call void @gtk_tree_store_append(ptr noundef %1, ptr noundef %2, ptr noundef null) #16
  br label %24

24:                                               ; preds = %22, %23
  call void (ptr, ptr, ...) @gtk_tree_store_set(ptr noundef %1, ptr noundef %2, i32 noundef 0, ptr noundef nonnull %3, i32 noundef 1, ptr noundef %4, i32 noundef 2, ptr noundef %5, i32 noundef -1) #16
  br label %25

25:                                               ; preds = %.thread, %6, %24
  ret void
}